target datalayout = "e-m:e-p270:32:32-p271:32:32-p272:64:64-i64:64-i128:128-f80:128-n8:16:32:64-S128"
target triple = "x86_64-unknown-linux-gnu"

%class.symbol = type { ptr }
%"struct.std::atomic.75" = type { %"struct.std::__atomic_base.76" }
%"struct.std::__atomic_base.76" = type { i8 }
%class.z3_log_ctx = type { i8 }

@_ZN6symbol4nullE = external global %class.symbol, align 8
@g_z3_log_enabled = external global %"struct.std::atomic.75", align 1

; Function Attrs: noreturn nounwind uwtable
define linkonce_odr hidden void @__clang_call_terminate(ptr noundef %0) #8 comdat {
  %2 = call ptr @__cxa_begin_catch(ptr %0) #3
  call void @_ZSt9terminatev() #12
  unreachable
}

; Function Attrs: mustprogress nounwind uwtable
define linkonce_odr noundef i32 @_ZStanSt12memory_orderSt23__memory_order_modifier(i32 noundef %__m, i32 noundef %__mod) #6 comdat {
entry:
  %__m.addr = alloca i32, align 4
  %__mod.addr = alloca i32, align 4
  store i32 %__m, ptr %__m.addr, align 4
  store i32 %__mod, ptr %__mod.addr, align 4
  %0 = load i32, ptr %__m.addr, align 4
  %1 = load i32, ptr %__mod.addr, align 4
  %and = and i32 %0, %1
  ret i32 %and
}

; Function Attrs: mustprogress nounwind uwtable
define linkonce_odr hidden noundef zeroext i1 @_ZNSt13__atomic_baseIbEaSEb(ptr noundef nonnull align 1 dereferenceable(1) %this, i1 noundef zeroext %__i) #6 comdat align 2 personality ptr @__gxx_personality_v0 {
entry:
  %this.addr.i = alloca ptr, align 8
  %__i.addr.i = alloca i8, align 1
  %__m.addr.i = alloca i32, align 4
  %__b.i = alloca i32, align 4
  %.atomictmp.i = alloca i8, align 1
  %this.addr = alloca ptr, align 8
  %__i.addr = alloca i8, align 1
  store ptr %this, ptr %this.addr, align 8
  %frombool = zext i1 %__i to i8
  store i8 %frombool, ptr %__i.addr, align 1
  %this1 = load ptr, ptr %this.addr, align 8
  %0 = load i8, ptr %__i.addr, align 1
  %tobool = trunc i8 %0 to i1
  store ptr %this1, ptr %this.addr.i, align 8
  %frombool.i = zext i1 %tobool to i8
  store i8 %frombool.i, ptr %__i.addr.i, align 1
  store i32 5, ptr %__m.addr.i, align 4
  %this1.i = load ptr, ptr %this.addr.i, align 8
  %1 = load i32, ptr %__m.addr.i, align 4
  %call.i = invoke noundef i32 @_ZStanSt12memory_orderSt23__memory_order_modifier(i32 noundef %1, i32 noundef 65535)
          to label %invoke.cont.i unwind label %terminate.lpad.i

invoke.cont.i:                                    ; preds = %entry
  store i32 %call.i, ptr %__b.i, align 4
  %2 = load i32, ptr %__m.addr.i, align 4
  %3 = load i8, ptr %__i.addr.i, align 1
  %tobool.i = trunc i8 %3 to i1
  %frombool8.i = zext i1 %tobool.i to i8
  store i8 %frombool8.i, ptr %.atomictmp.i, align 1
  switch i32 %2, label %monotonic.i [
    i32 3, label %release.i
    i32 5, label %seqcst.i
  ]

monotonic.i:                                      ; preds = %invoke.cont.i
  %4 = load i8, ptr %.atomictmp.i, align 1
  store atomic i8 %4, ptr %this1.i monotonic, align 1
  br label %_ZNSt13__atomic_baseIbE5storeEbSt12memory_order.exit

release.i:                                        ; preds = %invoke.cont.i
  %5 = load i8, ptr %.atomictmp.i, align 1
  store atomic i8 %5, ptr %this1.i release, align 1
  br label %_ZNSt13__atomic_baseIbE5storeEbSt12memory_order.exit

seqcst.i:                                         ; preds = %invoke.cont.i
  %6 = load i8, ptr %.atomictmp.i, align 1
  store atomic i8 %6, ptr %this1.i seq_cst, align 1
  br label %_ZNSt13__atomic_baseIbE5storeEbSt12memory_order.exit

terminate.lpad.i:                                 ; preds = %entry
  %7 = landingpad { ptr, i32 }
          catch ptr null
  %8 = extractvalue { ptr, i32 } %7, 0
  call void @__clang_call_terminate(ptr %8) #12
  unreachable

_ZNSt13__atomic_baseIbE5storeEbSt12memory_order.exit: ; preds = %seqcst.i, %release.i, %monotonic.i
  %9 = load i8, ptr %__i.addr, align 1
  %tobool2 = trunc i8 %9 to i1
  ret i1 %tobool2
}

; Function Attrs: mustprogress nounwind uwtable
define linkonce_odr hidden noundef zeroext i1 @_ZNSt6atomicIbEaSEb(ptr noundef nonnull align 1 dereferenceable(1) %this, i1 noundef zeroext %__i) #6 comdat align 2 {
entry:
  %this.addr = alloca ptr, align 8
  %__i.addr = alloca i8, align 1
  store ptr %this, ptr %this.addr, align 8
  %frombool = zext i1 %__i to i8
  store i8 %frombool, ptr %__i.addr, align 1
  %this1 = load ptr, ptr %this.addr, align 8
  %_M_base = getelementptr inbounds %"struct.std::atomic.75", ptr %this1, i32 0, i32 0
  %0 = load i8, ptr %__i.addr, align 1
  %tobool = trunc i8 %0 to i1
  %call = call noundef zeroext i1 @_ZNSt13__atomic_baseIbEaSEb(ptr noundef nonnull align 1 dereferenceable(1) %_M_base, i1 noundef zeroext %tobool) #3
  ret i1 %call
}

; Function Attrs: mustprogress nounwind uwtable
define linkonce_odr hidden noundef zeroext i1 @_ZNSt6atomicIbE8exchangeEbSt12memory_order(ptr noundef nonnull align 1 dereferenceable(1) %this, i1 noundef zeroext %__i, i32 noundef %__m) #6 comdat align 2 {
entry:
  %this.addr.i = alloca ptr, align 8
  %__i.addr.i = alloca i8, align 1
  %__m.addr.i = alloca i32, align 4
  %.atomictmp.i = alloca i8, align 1
  %atomic-temp.i = alloca i8, align 1
  %this.addr = alloca ptr, align 8
  %__i.addr = alloca i8, align 1
  %__m.addr = alloca i32, align 4
  store ptr %this, ptr %this.addr, align 8
  %frombool = zext i1 %__i to i8
  store i8 %frombool, ptr %__i.addr, align 1
  store i32 %__m, ptr %__m.addr, align 4
  %this1 = load ptr, ptr %this.addr, align 8
  %_M_base = getelementptr inbounds %"struct.std::atomic.75", ptr %this1, i32 0, i32 0
  %0 = load i8, ptr %__i.addr, align 1
  %tobool = trunc i8 %0 to i1
  %1 = load i32, ptr %__m.addr, align 4
  store ptr %_M_base, ptr %this.addr.i, align 8
  %frombool.i = zext i1 %tobool to i8
  store i8 %frombool.i, ptr %__i.addr.i, align 1
  store i32 %1, ptr %__m.addr.i, align 4
  %this1.i = load ptr, ptr %this.addr.i, align 8
  %2 = load i32, ptr %__m.addr.i, align 4
  %3 = load i8, ptr %__i.addr.i, align 1
  %tobool.i = trunc i8 %3 to i1
  %frombool2.i = zext i1 %tobool.i to i8
  store i8 %frombool2.i, ptr %.atomictmp.i, align 1
  switch i32 %2, label %monotonic.i [
    i32 1, label %acquire.i
    i32 2, label %acquire.i
    i32 3, label %release.i
    i32 4, label %acqrel.i
    i32 5, label %seqcst.i
  ]

monotonic.i:                                      ; preds = %entry
  %4 = load i8, ptr %.atomictmp.i, align 1
  %5 = atomicrmw xchg ptr %this1.i, i8 %4 monotonic, align 1
  store i8 %5, ptr %atomic-temp.i, align 1
  br label %_ZNSt13__atomic_baseIbE8exchangeEbSt12memory_order.exit

acquire.i:                                        ; preds = %entry, %entry
  %6 = load i8, ptr %.atomictmp.i, align 1
  %7 = atomicrmw xchg ptr %this1.i, i8 %6 acquire, align 1
  store i8 %7, ptr %atomic-temp.i, align 1
  br label %_ZNSt13__atomic_baseIbE8exchangeEbSt12memory_order.exit

release.i:                                        ; preds = %entry
  %8 = load i8, ptr %.atomictmp.i, align 1
  %9 = atomicrmw xchg ptr %this1.i, i8 %8 release, align 1
  store i8 %9, ptr %atomic-temp.i, align 1
  br label %_ZNSt13__atomic_baseIbE8exchangeEbSt12memory_order.exit

acqrel.i:                                         ; preds = %entry
  %10 = load i8, ptr %.atomictmp.i, align 1
  %11 = atomicrmw xchg ptr %this1.i, i8 %10 acq_rel, align 1
  store i8 %11, ptr %atomic-temp.i, align 1
  br label %_ZNSt13__atomic_baseIbE8exchangeEbSt12memory_order.exit

seqcst.i:                                         ; preds = %entry
  %12 = load i8, ptr %.atomictmp.i, align 1
  %13 = atomicrmw xchg ptr %this1.i, i8 %12 seq_cst, align 1
  store i8 %13, ptr %atomic-temp.i, align 1
  br label %_ZNSt13__atomic_baseIbE8exchangeEbSt12memory_order.exit

_ZNSt13__atomic_baseIbE8exchangeEbSt12memory_order.exit: ; preds = %seqcst.i, %acqrel.i, %release.i, %acquire.i, %monotonic.i
  %14 = load i8, ptr %atomic-temp.i, align 1
  %tobool3.i = trunc i8 %14 to i1
  ret i1 %tobool3.i
}

; Function Attrs: mustprogress nounwind uwtable
define linkonce_odr hidden void @_ZN10z3_log_ctxD2Ev(ptr noundef nonnull align 1 dereferenceable(1) %this) unnamed_addr #6 comdat align 2 {
entry:
  %this.addr = alloca ptr, align 8
  store ptr %this, ptr %this.addr, align 8
  %this1 = load ptr, ptr %this.addr, align 8
  %m_prev = getelementptr inbounds %class.z3_log_ctx, ptr %this1, i32 0, i32 0
  %0 = load i8, ptr %m_prev, align 1
  %tobool = trunc i8 %0 to i1
  br i1 %tobool, label %if.then, label %if.end

if.then:                                          ; preds = %entry
  %call = call noundef zeroext i1 @_ZNSt6atomicIbEaSEb(ptr noundef nonnull align 1 dereferenceable(1) @g_z3_log_enabled, i1 noundef zeroext true) #3
  br label %if.end

if.end:                                           ; preds = %if.then, %entry
  ret void
}

; Function Attrs: mustprogress nounwind uwtable
define linkonce_odr hidden noundef zeroext i1 @_ZNK10z3_log_ctx7enabledEv(ptr noundef nonnull align 1 dereferenceable(1) %this) #6 comdat align 2 {
entry:
  %this.addr = alloca ptr, align 8
  store ptr %this, ptr %this.addr, align 8
  %this1 = load ptr, ptr %this.addr, align 8
  %m_prev = getelementptr inbounds %class.z3_log_ctx, ptr %this1, i32 0, i32 0
  %0 = load i8, ptr %m_prev, align 1
  %tobool = trunc i8 %0 to i1
  ret i1 %tobool
}

; Function Attrs: mustprogress nounwind uwtable
define linkonce_odr hidden void @_ZN10z3_log_ctxC2Ev(ptr noundef nonnull align 1 dereferenceable(1) %this) unnamed_addr #6 comdat align 2 {
entry:
  %this.addr = alloca ptr, align 8
  store ptr %this, ptr %this.addr, align 8
  %this1 = load ptr, ptr %this.addr, align 8
  %call = call noundef zeroext i1 @_ZNSt6atomicIbE8exchangeEbSt12memory_order(ptr noundef nonnull align 1 dereferenceable(1) @g_z3_log_enabled, i1 noundef zeroext false, i32 noundef 5) #3
  %m_prev = getelementptr inbounds %class.z3_log_ctx, ptr %this1, i32 0, i32 0
  %frombool = zext i1 %call to i8
  store i8 %frombool, ptr %m_prev, align 1
  ret void
}

; Function Attrs: mustprogress nounwind uwtable
define linkonce_odr hidden noundef ptr @_ZNK6symbol16c_api_symbol2extEv(ptr noundef nonnull align 8 dereferenceable(8) %this) #6 comdat align 2 {
entry:
  %this.addr = alloca ptr, align 8
  store ptr %this, ptr %this.addr, align 8
  %this1 = load ptr, ptr %this.addr, align 8
  %m_data = getelementptr inbounds %class.symbol, ptr %this1, i32 0, i32 0
  %0 = load ptr, ptr %m_data, align 8
  ret ptr %0
}

; Function Attrs: mustprogress uwtable
define ptr @Z3_mk_quantifier_ex(ptr noundef %c, i1 noundef zeroext %is_forall, i32 noundef %weight, ptr noundef %quantifier_id, ptr noundef %skolem_id, i32 noundef %num_patterns, ptr noundef %patterns, i32 noundef %num_no_patterns, ptr noundef %no_patterns, i32 noundef %num_decls, ptr noundef %sorts, ptr noundef %decl_names, ptr noundef %body) #4 personality ptr @__gxx_personality_v0 {
entry:
  %c.addr = alloca ptr, align 8
  %is_forall.addr = alloca i8, align 1
  %weight.addr = alloca i32, align 4
  %quantifier_id.addr = alloca ptr, align 8
  %skolem_id.addr = alloca ptr, align 8
  %num_patterns.addr = alloca i32, align 4
  %patterns.addr = alloca ptr, align 8
  %num_no_patterns.addr = alloca i32, align 4
  %no_patterns.addr = alloca ptr, align 8
  %num_decls.addr = alloca i32, align 4
  %sorts.addr = alloca ptr, align 8
  %decl_names.addr = alloca ptr, align 8
  %body.addr = alloca ptr, align 8
  %_LOG_CTX = alloca %class.z3_log_ctx, align 1
  %exn.slot = alloca ptr, align 8
  %ehselector.slot = alloca i32, align 4
  %r = alloca ptr, align 8
  %tmp_ret = alloca ptr, align 8
  store ptr %c, ptr %c.addr, align 8
  %frombool = zext i1 %is_forall to i8
  store i8 %frombool, ptr %is_forall.addr, align 1
  store i32 %weight, ptr %weight.addr, align 4
  store ptr %quantifier_id, ptr %quantifier_id.addr, align 8
  store ptr %skolem_id, ptr %skolem_id.addr, align 8
  store i32 %num_patterns, ptr %num_patterns.addr, align 4
  store ptr %patterns, ptr %patterns.addr, align 8
  store i32 %num_no_patterns, ptr %num_no_patterns.addr, align 4
  store ptr %no_patterns, ptr %no_patterns.addr, align 8
  store i32 %num_decls, ptr %num_decls.addr, align 4
  store ptr %sorts, ptr %sorts.addr, align 8
  store ptr %decl_names, ptr %decl_names.addr, align 8
  store ptr %body, ptr %body.addr, align 8
  call void @_ZN10z3_log_ctxC2Ev(ptr noundef nonnull align 1 dereferenceable(1) %_LOG_CTX)
  %call = invoke noundef zeroext i1 @_ZNK10z3_log_ctx7enabledEv(ptr noundef nonnull align 1 dereferenceable(1) %_LOG_CTX)
          to label %invoke.cont unwind label %lpad

invoke.cont:                                      ; preds = %entry
  br i1 %call, label %if.then, label %if.end

if.then:                                          ; preds = %invoke.cont
  %0 = load ptr, ptr %c.addr, align 8
  %1 = load i8, ptr %is_forall.addr, align 1
  %tobool = trunc i8 %1 to i1
  %2 = load i32, ptr %weight.addr, align 4
  %3 = load ptr, ptr %quantifier_id.addr, align 8
  %4 = load ptr, ptr %skolem_id.addr, align 8
  %5 = load i32, ptr %num_patterns.addr, align 4
  %6 = load ptr, ptr %patterns.addr, align 8
  %7 = load i32, ptr %num_no_patterns.addr, align 4
  %8 = load ptr, ptr %no_patterns.addr, align 8
  %9 = load i32, ptr %num_decls.addr, align 4
  %10 = load ptr, ptr %sorts.addr, align 8
  %11 = load ptr, ptr %decl_names.addr, align 8
  %12 = load ptr, ptr %body.addr, align 8
  invoke void @_Z23log_Z3_mk_quantifier_exP11_Z3_contextbjP10_Z3_symbolS2_jPKP11_Z3_patternjPKP7_Z3_astjPKP8_Z3_sortPKS2_S8_(ptr noundef %0, i1 noundef zeroext %tobool, i32 noundef %2, ptr noundef %3, ptr noundef %4, i32 noundef %5, ptr noundef %6, i32 noundef %7, ptr noundef %8, i32 noundef %9, ptr noundef %10, ptr noundef %11, ptr noundef %12)
          to label %invoke.cont1 unwind label %lpad

invoke.cont1:                                     ; preds = %if.then
  br label %if.end

lpad:                                             ; preds = %if.then7, %do.body, %if.end, %if.then, %entry
  %13 = landingpad { ptr, i32 }
          cleanup
  %14 = extractvalue { ptr, i32 } %13, 0
  store ptr %14, ptr %exn.slot, align 8
  %15 = extractvalue { ptr, i32 } %13, 1
  store i32 %15, ptr %ehselector.slot, align 4
  call void @_ZN10z3_log_ctxD2Ev(ptr noundef nonnull align 1 dereferenceable(1) %_LOG_CTX) #3
  br label %eh.resume

if.end:                                           ; preds = %invoke.cont1, %invoke.cont
  %16 = load ptr, ptr %c.addr, align 8
  %17 = load i8, ptr %is_forall.addr, align 1
  %tobool2 = trunc i8 %17 to i1
  %18 = load i32, ptr %weight.addr, align 4
  %19 = load ptr, ptr %quantifier_id.addr, align 8
  %20 = load ptr, ptr %skolem_id.addr, align 8
  %21 = load i32, ptr %num_patterns.addr, align 4
  %22 = load ptr, ptr %patterns.addr, align 8
  %23 = load i32, ptr %num_no_patterns.addr, align 4
  %24 = load ptr, ptr %no_patterns.addr, align 8
  %25 = load i32, ptr %num_decls.addr, align 4
  %26 = load ptr, ptr %sorts.addr, align 8
  %27 = load ptr, ptr %decl_names.addr, align 8
  %28 = load ptr, ptr %body.addr, align 8
  %call4 = invoke ptr @mk_quantifier_ex_core(ptr noundef %16, i1 noundef zeroext %tobool2, i32 noundef %18, ptr noundef %19, ptr noundef %20, i32 noundef %21, ptr noundef %22, i32 noundef %23, ptr noundef %24, i32 noundef %25, ptr noundef %26, ptr noundef %27, ptr noundef %28)
          to label %invoke.cont3 unwind label %lpad

invoke.cont3:                                     ; preds = %if.end
  store ptr %call4, ptr %r, align 8
  br label %do.body

do.body:                                          ; preds = %invoke.cont3
  %29 = load ptr, ptr %r, align 8
  store ptr %29, ptr %tmp_ret, align 8
  %call6 = invoke noundef zeroext i1 @_ZNK10z3_log_ctx7enabledEv(ptr noundef nonnull align 1 dereferenceable(1) %_LOG_CTX)
          to label %invoke.cont5 unwind label %lpad

invoke.cont5:                                     ; preds = %do.body
  br i1 %call6, label %if.then7, label %if.end9

if.then7:                                         ; preds = %invoke.cont5
  %30 = load ptr, ptr %tmp_ret, align 8
  invoke void @_Z4SetRPv(ptr noundef %30)
          to label %invoke.cont8 unwind label %lpad

invoke.cont8:                                     ; preds = %if.then7
  br label %if.end9

if.end9:                                          ; preds = %invoke.cont8, %invoke.cont5
  %31 = load ptr, ptr %tmp_ret, align 8
  call void @_ZN10z3_log_ctxD2Ev(ptr noundef nonnull align 1 dereferenceable(1) %_LOG_CTX) #3
  ret ptr %31

do.cond:                                          ; No predecessors!
  br label %do.end

do.end:                                           ; preds = %do.cond
  call void @llvm.trap()
  unreachable

eh.resume:                                        ; preds = %lpad
  %exn = load ptr, ptr %exn.slot, align 8
  %sel = load i32, ptr %ehselector.slot, align 4
  %lpad.val = insertvalue { ptr, i32 } poison, ptr %exn, 0
  %lpad.val10 = insertvalue { ptr, i32 } %lpad.val, i32 %sel, 1
  resume { ptr, i32 } %lpad.val10
}

; Function Attrs: mustprogress uwtable
define linkonce_odr hidden noundef ptr @_Z9of_symbol6symbol(ptr %s.coerce) #4 comdat {
entry:
  %s = alloca %class.symbol, align 8
  %coerce.dive = getelementptr inbounds %class.symbol, ptr %s, i32 0, i32 0
  store ptr %s.coerce, ptr %coerce.dive, align 8
  %call = call noundef ptr @_ZNK6symbol16c_api_symbol2extEv(ptr noundef nonnull align 8 dereferenceable(8) %s)
  ret ptr %call
}

; Function Attrs: mustprogress uwtable
define ptr @Z3_mk_quantifier(ptr noundef %c, i1 noundef zeroext %is_forall, i32 noundef %weight, i32 noundef %num_patterns, ptr noundef %patterns, i32 noundef %num_decls, ptr noundef %sorts, ptr noundef %decl_names, ptr noundef %body) #4 {
entry:
  %c.addr = alloca ptr, align 8
  %is_forall.addr = alloca i8, align 1
  %weight.addr = alloca i32, align 4
  %num_patterns.addr = alloca i32, align 4
  %patterns.addr = alloca ptr, align 8
  %num_decls.addr = alloca i32, align 4
  %sorts.addr = alloca ptr, align 8
  %decl_names.addr = alloca ptr, align 8
  %body.addr = alloca ptr, align 8
  %agg.tmp = alloca %class.symbol, align 8
  %agg.tmp1 = alloca %class.symbol, align 8
  store ptr %c, ptr %c.addr, align 8
  %frombool = zext i1 %is_forall to i8
  store i8 %frombool, ptr %is_forall.addr, align 1
  store i32 %weight, ptr %weight.addr, align 4
  store i32 %num_patterns, ptr %num_patterns.addr, align 4
  store ptr %patterns, ptr %patterns.addr, align 8
  store i32 %num_decls, ptr %num_decls.addr, align 4
  store ptr %sorts, ptr %sorts.addr, align 8
  store ptr %decl_names, ptr %decl_names.addr, align 8
  store ptr %body, ptr %body.addr, align 8
  %0 = load ptr, ptr %c.addr, align 8
  %1 = load i8, ptr %is_forall.addr, align 1
  %tobool = trunc i8 %1 to i1
  %2 = load i32, ptr %weight.addr, align 4
  call void @llvm.memcpy.p0.p0.i64(ptr align 8 %agg.tmp, ptr align 8 @_ZN6symbol4nullE, i64 8, i1 false)
  %coerce.dive = getelementptr inbounds %class.symbol, ptr %agg.tmp, i32 0, i32 0
  %3 = load ptr, ptr %coerce.dive, align 8
  %call = call noundef ptr @_Z9of_symbol6symbol(ptr %3)
  call void @llvm.memcpy.p0.p0.i64(ptr align 8 %agg.tmp1, ptr align 8 @_ZN6symbol4nullE, i64 8, i1 false)
  %coerce.dive2 = getelementptr inbounds %class.symbol, ptr %agg.tmp1, i32 0, i32 0
  %4 = load ptr, ptr %coerce.dive2, align 8
  %call3 = call noundef ptr @_Z9of_symbol6symbol(ptr %4)
  %5 = load i32, ptr %num_patterns.addr, align 4
  %6 = load ptr, ptr %patterns.addr, align 8
  %7 = load i32, ptr %num_decls.addr, align 4
  %8 = load ptr, ptr %sorts.addr, align 8
  %9 = load ptr, ptr %decl_names.addr, align 8
  %10 = load ptr, ptr %body.addr, align 8
  %call4 = call ptr @Z3_mk_quantifier_ex(ptr noundef %0, i1 noundef zeroext %tobool, i32 noundef %2, ptr noundef %call, ptr noundef %call3, i32 noundef %5, ptr noundef %6, i32 noundef 0, ptr noundef null, i32 noundef %7, ptr noundef %8, ptr noundef %9, ptr noundef %10)
  ret ptr %call4
}

; Function Attrs: mustprogress uwtable
define ptr @Z3_mk_forall(ptr noundef %c, i32 noundef %weight, i32 noundef %num_patterns, ptr noundef %patterns, i32 noundef %num_decls, ptr noundef %types, ptr noundef %decl_names, ptr noundef %body) #4 {
entry:
  %c.addr = alloca ptr, align 8
  %weight.addr = alloca i32, align 4
  %num_patterns.addr = alloca i32, align 4
  %patterns.addr = alloca ptr, align 8
  %num_decls.addr = alloca i32, align 4
  %types.addr = alloca ptr, align 8
  %decl_names.addr = alloca ptr, align 8
  %body.addr = alloca ptr, align 8
  store ptr %c, ptr %c.addr, align 8
  store i32 %weight, ptr %weight.addr, align 4
  store i32 %num_patterns, ptr %num_patterns.addr, align 4
  store ptr %patterns, ptr %patterns.addr, align 8
  store i32 %num_decls, ptr %num_decls.addr, align 4
  store ptr %types, ptr %types.addr, align 8
  store ptr %decl_names, ptr %decl_names.addr, align 8
  store ptr %body, ptr %body.addr, align 8
  %0 = load ptr, ptr %c.addr, align 8
  %1 = load i32, ptr %weight.addr, align 4
  %2 = load i32, ptr %num_patterns.addr, align 4
  %3 = load ptr, ptr %patterns.addr, align 8
  %4 = load i32, ptr %num_decls.addr, align 4
  %5 = load ptr, ptr %types.addr, align 8
  %6 = load ptr, ptr %decl_names.addr, align 8
  %7 = load ptr, ptr %body.addr, align 8
  %call = call ptr @Z3_mk_quantifier(ptr noundef %0, i1 noundef zeroext true, i32 noundef %1, i32 noundef %2, ptr noundef %3, i32 noundef %4, ptr noundef %5, ptr noundef %6, ptr noundef %7)
  ret ptr %call
}